target datalayout = "e-m:e-p270:32:32-p271:32:32-p272:64:64-i64:64-i128:128-f80:128-n8:16:32:64-S128"
target triple = "x86_64-pc-linux-gnu"

%struct.H5FL_reg_head_t = type { i8, i32, i32, ptr, i64, ptr }
%struct.H5VL_t = type { ptr, i64, i64 }

@H5_H5VL_t_reg_free_list = global %struct.H5FL_reg_head_t { i8 0, i32 0, i32 0, ptr @.str, i64 24, ptr null }, align 8
@.str.2 = private unnamed_addr constant [101 x i8] c"generated/home/dtcxzyw/WorkSpace/Projects/compilers/llvm-opt-benchmark/bench/hdf5/hdf5/src/H5VLint.c\00", align 1
@H5E_VOL_g = external global i64, align 8
@H5E_CANTALLOC_g = external global i64, align 8
@H5E_CANTINC_g = external global i64, align 8
@H5E_CANTDEC_g = external global i64, align 8
@H5E_BADTYPE_g = external global i64, align 8
@.str.36 = private unnamed_addr constant [23 x i8] c"not a VOL connector ID\00", align 1
@H5E_CANTCREATE_g = external global i64, align 8
@.str.40 = private unnamed_addr constant [24 x i8] c"can't create VOL object\00", align 1
@.str.44 = private unnamed_addr constant [47 x i8] c"unable to increment ref count on VOL connector\00", align 1
@.str.45 = private unnamed_addr constant [47 x i8] c"unable to decrement ref count on VOL connector\00", align 1
@__func__.H5VL_create_object_using_vol_id = private unnamed_addr constant [32 x i8] c"H5VL_create_object_using_vol_id\00", align 1
@.str.49 = private unnamed_addr constant [31 x i8] c"can't allocate VOL info struct\00", align 1

; Function Attrs: nounwind uwtable
define ptr @H5VL_create_object_using_vol_id(i32 noundef %0, ptr noundef %1, i64 noundef %2) #0 {
  %4 = alloca i32, align 4
  %5 = alloca ptr, align 8
  %6 = alloca i64, align 8
  %7 = alloca ptr, align 8
  %8 = alloca ptr, align 8
  %9 = alloca i8, align 1
  %10 = alloca ptr, align 8
  %11 = alloca i8, align 1
  store i32 %0, ptr %4, align 4
  store ptr %1, ptr %5, align 8
  store i64 %2, ptr %6, align 8
  store ptr null, ptr %7, align 8
  store ptr null, ptr %8, align 8
  store i8 0, ptr %9, align 1
  store ptr null, ptr %10, align 8
  store i8 0, ptr %11, align 1
  %12 = load i64, ptr %6, align 8
  %13 = call ptr @H5I_object_verify(i64 noundef %12, i32 noundef 9)
  store ptr %13, ptr %7, align 8
  %14 = icmp eq ptr null, %13
  br i1 %14, label %15, label %30

15:                                               ; preds = %3
  br label %16

16:                                               ; preds = %15
  br label %17

17:                                               ; preds = %16
  br label %18

18:                                               ; preds = %17
  %19 = load i64, ptr @H5E_VOL_g, align 8
  %20 = load i64, ptr @H5E_BADTYPE_g, align 8
  %21 = call i32 (ptr, ptr, i32, i64, i64, ptr, ...) @H5E_printf_stack(ptr noundef @.str.2, ptr noundef @__func__.H5VL_create_object_using_vol_id, i32 noundef 900, i64 noundef %19, i64 noundef %20, ptr noundef @.str.36)
  br label %22

22:                                               ; preds = %18
  store i8 1, ptr %11, align 1
  %23 = load i8, ptr %11, align 1
  %24 = trunc i8 %23 to i1
  %25 = zext i1 %24 to i8
  store i8 %25, ptr %11, align 1
  br label %26

26:                                               ; preds = %22
  br label %27

27:                                               ; preds = %26
  store ptr null, ptr %10, align 8
  br label %97

28:                                               ; No predecessors!
  br label %29

29:                                               ; preds = %28
  br label %30

30:                                               ; preds = %29, %3
  %31 = call noalias ptr @H5FL_reg_calloc(ptr noundef @H5_H5VL_t_reg_free_list)
  store ptr %31, ptr %8, align 8
  %32 = icmp eq ptr null, %31
  br i1 %32, label %33, label %48

33:                                               ; preds = %30
  br label %34

34:                                               ; preds = %33
  br label %35

35:                                               ; preds = %34
  br label %36

36:                                               ; preds = %35
  %37 = load i64, ptr @H5E_VOL_g, align 8
  %38 = load i64, ptr @H5E_CANTALLOC_g, align 8
  %39 = call i32 (ptr, ptr, i32, i64, i64, ptr, ...) @H5E_printf_stack(ptr noundef @.str.2, ptr noundef @__func__.H5VL_create_object_using_vol_id, i32 noundef 904, i64 noundef %37, i64 noundef %38, ptr noundef @.str.49)
  br label %40

40:                                               ; preds = %36
  store i8 1, ptr %11, align 1
  %41 = load i8, ptr %11, align 1
  %42 = trunc i8 %41 to i1
  %43 = zext i1 %42 to i8
  store i8 %43, ptr %11, align 1
  br label %44

44:                                               ; preds = %40
  br label %45

45:                                               ; preds = %44
  store ptr null, ptr %10, align 8
  br label %97

46:                                               ; No predecessors!
  br label %47

47:                                               ; preds = %46
  br label %48

48:                                               ; preds = %47, %30
  %49 = load ptr, ptr %7, align 8
  %50 = load ptr, ptr %8, align 8
  %51 = getelementptr inbounds %struct.H5VL_t, ptr %50, i32 0, i32 0
  store ptr %49, ptr %51, align 8
  %52 = load i64, ptr %6, align 8
  %53 = load ptr, ptr %8, align 8
  %54 = getelementptr inbounds %struct.H5VL_t, ptr %53, i32 0, i32 2
  store i64 %52, ptr %54, align 8
  %55 = load ptr, ptr %8, align 8
  %56 = getelementptr inbounds %struct.H5VL_t, ptr %55, i32 0, i32 2
  %57 = load i64, ptr %56, align 8
  %58 = call i32 @H5I_inc_ref(i64 noundef %57, i1 noundef zeroext false)
  %59 = icmp slt i32 %58, 0
  br i1 %59, label %60, label %75

60:                                               ; preds = %48
  br label %61

61:                                               ; preds = %60
  br label %62

62:                                               ; preds = %61
  br label %63

63:                                               ; preds = %62
  %64 = load i64, ptr @H5E_VOL_g, align 8
  %65 = load i64, ptr @H5E_CANTINC_g, align 8
  %66 = call i32 (ptr, ptr, i32, i64, i64, ptr, ...) @H5E_printf_stack(ptr noundef @.str.2, ptr noundef @__func__.H5VL_create_object_using_vol_id, i32 noundef 908, i64 noundef %64, i64 noundef %65, ptr noundef @.str.44)
  br label %67

67:                                               ; preds = %63
  store i8 1, ptr %11, align 1
  %68 = load i8, ptr %11, align 1
  %69 = trunc i8 %68 to i1
  %70 = zext i1 %69 to i8
  store i8 %70, ptr %11, align 1
  br label %71

71:                                               ; preds = %67
  br label %72

72:                                               ; preds = %71
  store ptr null, ptr %10, align 8
  br label %97

73:                                               ; No predecessors!
  br label %74

74:                                               ; preds = %73
  br label %75

75:                                               ; preds = %74, %48
  store i8 1, ptr %9, align 1
  %76 = load i32, ptr %4, align 4
  %77 = load ptr, ptr %5, align 8
  %78 = load ptr, ptr %8, align 8
  %79 = call ptr @H5VL__new_vol_obj(i32 noundef %76, ptr noundef %77, ptr noundef %78, i1 noundef zeroext true)
  store ptr %79, ptr %10, align 8
  %80 = icmp eq ptr null, %79
  br i1 %80, label %81, label %96

81:                                               ; preds = %75
  br label %82

82:                                               ; preds = %81
  br label %83

83:                                               ; preds = %82
  br label %84

84:                                               ; preds = %83
  %85 = load i64, ptr @H5E_VOL_g, align 8
  %86 = load i64, ptr @H5E_CANTCREATE_g, align 8
  %87 = call i32 (ptr, ptr, i32, i64, i64, ptr, ...) @H5E_printf_stack(ptr noundef @.str.2, ptr noundef @__func__.H5VL_create_object_using_vol_id, i32 noundef 914, i64 noundef %85, i64 noundef %86, ptr noundef @.str.40)
  br label %88

88:                                               ; preds = %84
  store i8 1, ptr %11, align 1
  %89 = load i8, ptr %11, align 1
  %90 = trunc i8 %89 to i1
  %91 = zext i1 %90 to i8
  store i8 %91, ptr %11, align 1
  br label %92

92:                                               ; preds = %88
  br label %93

93:                                               ; preds = %92
  store ptr null, ptr %10, align 8
  br label %97

94:                                               ; No predecessors!
  br label %95

95:                                               ; preds = %94
  br label %96

96:                                               ; preds = %95, %75
  br label %97

97:                                               ; preds = %96, %93, %72, %45, %27
  %98 = load ptr, ptr %10, align 8
  %99 = icmp ne ptr %98, null
  br i1 %99, label %127, label %100

100:                                              ; preds = %97
  %101 = load i8, ptr %9, align 1
  %102 = trunc i8 %101 to i1
  br i1 %102, label %103, label %120

103:                                              ; preds = %100
  %104 = load i64, ptr %6, align 8
  %105 = call i32 @H5I_dec_ref(i64 noundef %104)
  %106 = icmp slt i32 %105, 0
  br i1 %106, label %107, label %120

107:                                              ; preds = %103
  br label %108

108:                                              ; preds = %107
  br label %109

109:                                              ; preds = %108
  br label %110

110:                                              ; preds = %109
  %111 = load i64, ptr @H5E_VOL_g, align 8
  %112 = load i64, ptr @H5E_CANTDEC_g, align 8
  %113 = call i32 (ptr, ptr, i32, i64, i64, ptr, ...) @H5E_printf_stack(ptr noundef @.str.2, ptr noundef @__func__.H5VL_create_object_using_vol_id, i32 noundef 921, i64 noundef %111, i64 noundef %112, ptr noundef @.str.45)
  br label %114

114:                                              ; preds = %110
  store i8 1, ptr %11, align 1
  %115 = load i8, ptr %11, align 1
  %116 = trunc i8 %115 to i1
  %117 = zext i1 %116 to i8
  store i8 %117, ptr %11, align 1
  br label %118

118:                                              ; preds = %114
  store ptr null, ptr %10, align 8
  br label %119

119:                                              ; preds = %118
  br label %120

120:                                              ; preds = %119, %103, %100
  %121 = load ptr, ptr %8, align 8
  %122 = icmp ne ptr null, %121
  br i1 %122, label %123, label %126

123:                                              ; preds = %120
  %124 = load ptr, ptr %8, align 8
  %125 = call ptr @H5FL_reg_free(ptr noundef @H5_H5VL_t_reg_free_list, ptr noundef %124)
  store ptr %125, ptr %8, align 8
  br label %126

126:                                              ; preds = %123, %120
  br label %127

127:                                              ; preds = %126, %97
  %128 = load ptr, ptr %10, align 8
  ret ptr %128
}