; Function Attrs: nounwind uwtable
define ptr @H5VL_create_object_using_vol_id(i32 noundef %0, ptr noundef %1, i64 noundef %2) local_unnamed_addr #0 {
  %4 = tail call ptr @H5I_object_verify(i64 noundef %2, i32 noundef 9) #10
  %5 = icmp eq ptr %4, null
  br i1 %5, label %6, label %10

6:                                                ; preds = %3
  %7 = load i64, ptr @H5E_VOL_g, align 8
  %8 = load i64, ptr @H5E_BADTYPE_g, align 8
  %9 = tail call i32 (ptr, ptr, i32, i64, i64, ptr, ...) @H5E_printf_stack(ptr noundef nonnull @.str.2, ptr noundef nonnull @__func__.H5VL_create_object_using_vol_id, i32 noundef 900, i64 noundef %7, i64 noundef %8, ptr noundef nonnull @.str.36) #10
  br label %.thread43

10:                                               ; preds = %3
  %11 = tail call noalias ptr @H5FL_reg_calloc(ptr noundef nonnull @H5_H5VL_t_reg_free_list) #10
  %12 = icmp eq ptr %11, null
  br i1 %12, label %13, label %17

13:                                               ; preds = %10
  %14 = load i64, ptr @H5E_VOL_g, align 8
  %15 = load i64, ptr @H5E_CANTALLOC_g, align 8
  %16 = tail call i32 (ptr, ptr, i32, i64, i64, ptr, ...) @H5E_printf_stack(ptr noundef nonnull @.str.2, ptr noundef nonnull @__func__.H5VL_create_object_using_vol_id, i32 noundef 904, i64 noundef %14, i64 noundef %15, ptr noundef nonnull @.str.49) #10
  br label %.thread43

17:                                               ; preds = %10
  store ptr %4, ptr %11, align 8
  %18 = getelementptr inbounds i8, ptr %11, i64 16
  store i64 %2, ptr %18, align 8
  %19 = tail call i32 @H5I_inc_ref(i64 noundef %2, i1 noundef zeroext false) #10
  %20 = icmp slt i32 %19, 0
  br i1 %20, label %34, label %21

21:                                               ; preds = %17
  %22 = tail call fastcc ptr @H5VL__new_vol_obj(i32 noundef %0, ptr noundef %1, ptr noundef nonnull %11, i1 noundef zeroext true)
  %23 = icmp eq ptr %22, null
  br i1 %23, label %24, label %.thread43

24:                                               ; preds = %21
  %25 = load i64, ptr @H5E_VOL_g, align 8
  %26 = load i64, ptr @H5E_CANTCREATE_g, align 8
  %27 = tail call i32 (ptr, ptr, i32, i64, i64, ptr, ...) @H5E_printf_stack(ptr noundef nonnull @.str.2, ptr noundef nonnull @__func__.H5VL_create_object_using_vol_id, i32 noundef 914, i64 noundef %25, i64 noundef %26, ptr noundef nonnull @.str.40) #10
  %28 = tail call i32 @H5I_dec_ref(i64 noundef %2) #10
  %29 = icmp slt i32 %28, 0
  br i1 %29, label %30, label %.thread38

30:                                               ; preds = %24
  %31 = load i64, ptr @H5E_VOL_g, align 8
  %32 = load i64, ptr @H5E_CANTDEC_g, align 8
  %33 = tail call i32 (ptr, ptr, i32, i64, i64, ptr, ...) @H5E_printf_stack(ptr noundef nonnull @.str.2, ptr noundef nonnull @__func__.H5VL_create_object_using_vol_id, i32 noundef 921, i64 noundef %31, i64 noundef %32, ptr noundef nonnull @.str.45) #10
  br label %.thread38

34:                                               ; preds = %17
  %35 = load i64, ptr @H5E_VOL_g, align 8
  %36 = load i64, ptr @H5E_CANTINC_g, align 8
  %37 = tail call i32 (ptr, ptr, i32, i64, i64, ptr, ...) @H5E_printf_stack(ptr noundef nonnull @.str.2, ptr noundef nonnull @__func__.H5VL_create_object_using_vol_id, i32 noundef 908, i64 noundef %35, i64 noundef %36, ptr noundef nonnull @.str.44) #10
  br label %.thread38

.thread38:                                        ; preds = %24, %30, %34
  %38 = tail call ptr @H5FL_reg_free(ptr noundef nonnull @H5_H5VL_t_reg_free_list, ptr noundef nonnull %11) #10
  br label %.thread43

.thread43:                                        ; preds = %13, %6, %21, %.thread38
  %.2 = phi ptr [ null, %.thread38 ], [ %22, %21 ], [ null, %6 ], [ null, %13 ]
  ret ptr %.2
}